target datalayout = "e-m:e-p270:32:32-p271:32:32-p272:64:64-i64:64-i128:128-f80:128-n8:16:32:64-S128"
target triple = "x86_64-pc-linux-gnu"

%struct.DICTIONARY_ID = type { i64 }
%"class.std::__shared_count" = type { ptr }
%"class.toku::locktree" = type { ptr, %struct.DICTIONARY_ID, i32, [4 x i8], %"class.toku::comparator", ptr, ptr, ptr, ptr, %"struct.toku::lt_lock_request_info", i64, %"class.toku::range_buffer", i32, i64, i64 }
%"class.toku::comparator" = type <{ ptr, ptr, i8, [7 x i8] }>
%"struct.toku::lt_lock_request_info" = type <{ %"class.toku::omt", %"struct.std::atomic", [7 x i8], %"class.std::shared_ptr.0", i8, [7 x i8], %"struct.toku::lt_counters", %"struct.std::atomic.3", i64, %struct.toku_mutex_t, %struct.toku_cond_t, i8, [7 x i8] }>
%"class.toku::omt" = type { i8, i32, %union.anon }
%union.anon = type { %"struct.toku::omt<toku::lock_request *>::omt_array" }
%"struct.toku::omt<toku::lock_request *>::omt_array" = type { i32, i32, ptr }
%"struct.std::atomic" = type { %"struct.std::__atomic_base" }
%"struct.std::__atomic_base" = type { i8 }
%"class.std::shared_ptr.0" = type { %"class.std::__shared_ptr.1" }
%"class.std::__shared_ptr.1" = type { ptr, %"class.std::__shared_count" }
%"struct.toku::lt_counters" = type { i64, i64, i64, i64, i64 }
%"struct.std::atomic.3" = type { %"struct.std::__atomic_base.4" }
%"struct.std::__atomic_base.4" = type { i64 }
%struct.toku_mutex_t = type { %union.pthread_mutex_t, ptr }
%union.pthread_mutex_t = type { %struct.__pthread_mutex_s }
%struct.__pthread_mutex_s = type { i32, i32, i32, i32, i32, i16, i16, %struct.__pthread_internal_list }
%struct.__pthread_internal_list = type { ptr, ptr }
%struct.toku_cond_t = type { %union.pthread_cond_t, ptr }
%union.pthread_cond_t = type { %struct.__pthread_cond_s }
%struct.__pthread_cond_s = type { %union.__atomic_wide_counter, %union.__atomic_wide_counter, [2 x i32], [2 x i32], i32, i32, [2 x i32] }
%union.__atomic_wide_counter = type { i64 }
%"class.toku::range_buffer" = type <{ %class.memarena, i32, [4 x i8] }>
%class.memarena = type { %"struct.memarena::arena_chunk", ptr, i32, i64, i64 }
%"struct.memarena::arena_chunk" = type { ptr, i64, i64 }
%"class.toku::keyrange" = type <{ %struct.__toku_dbt, %struct.__toku_dbt, ptr, ptr, i8, [7 x i8] }>
%struct.__toku_dbt = type { ptr, i64, i64, i32 }

; Function Attrs: mustprogress uwtable
define void @_ZN4toku8locktree10sto_appendEPK10__toku_dbtS3_b(ptr noundef nonnull align 8 dereferenceable(400) %0, ptr noundef %1, ptr noundef %2, i1 noundef zeroext %3) #0 align 2 {
  %5 = alloca ptr, align 8
  %6 = alloca ptr, align 8
  %7 = alloca ptr, align 8
  %8 = alloca i8, align 1
  %9 = alloca i64, align 8
  %10 = alloca i64, align 8
  %11 = alloca %"class.toku::keyrange", align 8
  store ptr %0, ptr %5, align 8, !tbaa !4
  store ptr %1, ptr %6, align 8, !tbaa !89
  store ptr %2, ptr %7, align 8, !tbaa !89
  %12 = zext i1 %3 to i8
  store i8 %12, ptr %8, align 1, !tbaa !67
  %13 = load ptr, ptr %5, align 8
  call void @llvm.lifetime.start.p0(i64 8, ptr %9) #18
  call void @llvm.lifetime.start.p0(i64 8, ptr %10) #18
  call void @llvm.lifetime.start.p0(i64 88, ptr %11) #18
  %14 = load ptr, ptr %6, align 8, !tbaa !89
  %15 = load ptr, ptr %7, align 8, !tbaa !89
  call void @_ZN4toku8keyrange6createEPK10__toku_dbtS3_(ptr noundef nonnull align 8 dereferenceable(81) %11, ptr noundef %14, ptr noundef %15)
  %16 = getelementptr inbounds nuw %"class.toku::locktree", ptr %13, i32 0, i32 11
  %17 = call noundef i64 @_ZNK4toku12range_buffer17total_memory_sizeEv(ptr noundef nonnull align 8 dereferenceable(60) %16)
  store i64 %17, ptr %9, align 8, !tbaa !46
  %18 = getelementptr inbounds nuw %"class.toku::locktree", ptr %13, i32 0, i32 11
  %19 = load ptr, ptr %6, align 8, !tbaa !89
  %20 = load ptr, ptr %7, align 8, !tbaa !89
  %21 = load i8, ptr %8, align 1, !tbaa !67, !range !68, !noundef !69
  %22 = trunc i8 %21 to i1
  call void @_ZN4toku12range_buffer6appendEPK10__toku_dbtS3_b(ptr noundef nonnull align 8 dereferenceable(60) %18, ptr noundef %19, ptr noundef %20, i1 noundef zeroext %22)
  %23 = getelementptr inbounds nuw %"class.toku::locktree", ptr %13, i32 0, i32 11
  %24 = call noundef i64 @_ZNK4toku12range_buffer17total_memory_sizeEv(ptr noundef nonnull align 8 dereferenceable(60) %23)
  %25 = load i64, ptr %9, align 8, !tbaa !46
  %26 = sub i64 %24, %25
  store i64 %26, ptr %10, align 8, !tbaa !46
  %27 = getelementptr inbounds nuw %"class.toku::locktree", ptr %13, i32 0, i32 0
  %28 = load ptr, ptr %27, align 8, !tbaa !15
  %29 = icmp ne ptr %28, null
  br i1 %29, label %30, label %34

30:                                               ; preds = %4
  %31 = getelementptr inbounds nuw %"class.toku::locktree", ptr %13, i32 0, i32 0
  %32 = load ptr, ptr %31, align 8, !tbaa !15
  %33 = load i64, ptr %10, align 8, !tbaa !46
  call void @_ZN4toku16locktree_manager13note_mem_usedEm(ptr noundef nonnull align 8 dereferenceable(392) %32, i64 noundef %33)
  br label %34

34:                                               ; preds = %30, %4
  call void @llvm.lifetime.end.p0(i64 88, ptr %11) #18
  call void @llvm.lifetime.end.p0(i64 8, ptr %10) #18
  call void @llvm.lifetime.end.p0(i64 8, ptr %9) #18
  ret void
}