; Function Attrs: mustprogress uwtable
define void @_ZN4toku8locktree10sto_appendEPK10__toku_dbtS3_b(ptr noundef nonnull align 8 dereferenceable(400) %0, ptr noundef %1, ptr noundef %2, i1 noundef zeroext %3) local_unnamed_addr #0 align 2 {
  %5 = alloca %"class.toku::keyrange", align 8
  call void @llvm.lifetime.start.p0(i64 88, ptr nonnull %5) #21
  call void @_ZN4toku8keyrange6createEPK10__toku_dbtS3_(ptr noundef nonnull align 8 dereferenceable(81) %5, ptr noundef %1, ptr noundef %2)
  %6 = getelementptr inbounds nuw i8, ptr %0, i64 312
  %7 = call noundef i64 @_ZNK4toku12range_buffer17total_memory_sizeEv(ptr noundef nonnull align 8 dereferenceable(60) %6)
  call void @_ZN4toku12range_buffer6appendEPK10__toku_dbtS3_b(ptr noundef nonnull align 8 dereferenceable(60) %6, ptr noundef %1, ptr noundef %2, i1 noundef zeroext %3)
  %8 = call noundef i64 @_ZNK4toku12range_buffer17total_memory_sizeEv(ptr noundef nonnull align 8 dereferenceable(60) %6)
  %9 = load ptr, ptr %0, align 8, !tbaa !4
  %.not = icmp eq ptr %9, null
  br i1 %.not, label %12, label %10

10:                                               ; preds = %4
  %11 = sub i64 %8, %7
  call void @_ZN4toku16locktree_manager13note_mem_usedEm(ptr noundef nonnull align 8 dereferenceable(392) %9, i64 noundef %11)
  br label %12

12:                                               ; preds = %10, %4
  call void @llvm.lifetime.end.p0(i64 88, ptr nonnull %5) #21
  ret void
}